TN:
SF:/home/rosi/workcell_ws/src/easy_manipulation_deployment/grasp_planner/include/ee_config.hpp
FN:28,_Z20get_package_filepathNSt7__cxx1112basic_stringIcSt11char_traitsIcESaIcEEE
FN:42,_Z20goto_folder_filepathNSt7__cxx1112basic_stringIcSt11char_traitsIcESaIcEEES4_
FN:55,_Z16load_config_yamlNSt7__cxx1112basic_stringIcSt11char_traitsIcESaIcEEES4_S4_
FN:77,_Z11get_ee_typeNSt7__cxx1112basic_stringIcSt11char_traitsIcESaIcEEES4_S4_
FN:116,_Z22load_finger_attributesNSt7__cxx1112basic_stringIcSt11char_traitsIcESaIcEEES4_S4_
FN:244,_Z23load_suction_attributesNSt7__cxx1112basic_stringIcSt11char_traitsIcESaIcEEES4_S4_
FNDA:114,_Z23load_suction_attributesNSt7__cxx1112basic_stringIcSt11char_traitsIcESaIcEEES4_S4_
FNDA:378,_Z20get_package_filepathNSt7__cxx1112basic_stringIcSt11char_traitsIcESaIcEEE
FNDA:120,_Z22load_finger_attributesNSt7__cxx1112basic_stringIcSt11char_traitsIcESaIcEEES4_S4_
FNDA:288,_Z16load_config_yamlNSt7__cxx1112basic_stringIcSt11char_traitsIcESaIcEEES4_S4_
FNDA:366,_Z20goto_folder_filepathNSt7__cxx1112basic_stringIcSt11char_traitsIcESaIcEEES4_
FNDA:30,_Z11get_ee_typeNSt7__cxx1112basic_stringIcSt11char_traitsIcESaIcEEES4_S4_
FNF:6
FNH:6
DA:28,378
DA:30,378
DA:32,378
DA:33,12
DA:34,6
DA:36,372
DA:42,366
DA:44,396
DA:46,456
DA:47,60
DA:48,30
DA:50,336
DA:55,288
DA:60,288
DA:62,336
DA:63,264
DA:64,48
DA:65,24
DA:66,48
DA:67,24
DA:68,36
DA:69,18
DA:71,222
DA:77,30
DA:82,30
DA:83,30
DA:85,102
DA:86,42
DA:87,24
DA:88,84
DA:89,78
DA:91,30
DA:92,12
DA:93,12
DA:98,18
DA:99,6
DA:101,12
DA:102,6
DA:103,12
DA:104,6
DA:105,12
DA:106,6
DA:107,0
DA:108,0
DA:110,12
DA:116,120
DA:121,120
DA:122,120
DA:123,120
DA:124,120
DA:125,120
DA:126,120
DA:127,120
DA:128,120
DA:129,120
DA:130,120
DA:131,120
DA:132,120
DA:133,120
DA:134,120
DA:135,120
DA:137,378
DA:138,246
DA:139,144
DA:140,474
DA:141,438
DA:143,198
DA:144,96
DA:145,564
DA:146,648
DA:148,306
DA:149,78
DA:150,78
DA:151,6
DA:152,72
DA:154,300
DA:155,72
DA:156,72
DA:157,6
DA:158,66
DA:160,294
DA:161,66
DA:162,66
DA:163,6
DA:164,60
DA:166,288
DA:167,90
DA:168,90
DA:170,12
DA:172,78
DA:178,114
DA:179,252
DA:180,294
DA:182,126
DA:183,42
DA:184,42
DA:186,126
DA:187,42
DA:188,42
DA:190,126
DA:191,42
DA:192,42
DA:197,72
DA:198,6
DA:200,66
DA:201,54
DA:202,42
DA:203,42
DA:205,24
DA:206,6
DA:208,18
DA:209,6
DA:211,12
DA:212,6
DA:214,6
DA:215,6
DA:217,0
DA:218,0
DA:220,0
DA:221,0
DA:223,0
DA:224,0
DA:229,84
DA:230,42
DA:232,0
DA:233,0
DA:234,12
DA:235,6
DA:236,120
DA:237,60
DA:244,114
DA:249,114
DA:250,114
DA:251,114
DA:252,114
DA:253,114
DA:254,114
DA:255,114
DA:256,114
DA:257,114
DA:258,228
DA:260,342
DA:261,192
DA:262,96
DA:263,426
DA:264,372
DA:266,186
DA:267,90
DA:268,462
DA:269,474
DA:271,240
DA:272,84
DA:273,84
DA:275,12
DA:277,72
DA:278,6
DA:280,66
DA:282,222
DA:283,66
DA:284,66
DA:286,12
DA:288,54
DA:289,6
DA:291,48
DA:293,204
DA:294,48
DA:295,6
DA:297,42
DA:298,42
DA:300,198
DA:301,42
DA:302,6
DA:304,36
DA:305,36
DA:313,48
DA:314,6
DA:316,42
DA:317,30
DA:319,24
DA:320,6
DA:322,18
DA:323,6
DA:325,12
DA:326,6
DA:328,6
DA:329,6
DA:332,36
DA:333,18
DA:335,12
DA:336,6
DA:337,156
DA:338,78
DA:339,12
DA:340,6
DA:341,12
DA:342,6
DA:344,0
LF:197
LH:186
end_of_record
TN:
SF:/home/rosi/workcell_ws/src/easy_manipulation_deployment/grasp_planner/include/grasps.hpp
FN:124,_ZN9TwoFingerC2Ev
FN:134,_ZN9TwoFingerC2Effffff
FN:161,_ZN9TwoFinger15get_checkpointsE3Msg
FN:396,_ZN9TwoFinger14get_corner_gdiESt6vectorIiSaIiEEfN2cv3MatEf
FN:431,_ZN9TwoFinger13get_gdi_valueEN2cv3MatESt6vectorIiSaIiEES4_S4_S4_S4_
FN:521,_ZN9TwoFinger13find_2_pointsESt6vectorIfSaIfEES2_i
FN:671,_ZN9TwoFinger21best_grasp_from_pointESt6vectorIiSaIiEE3MsgN2cv3MatEii
FN:775,_ZN9TwoFinger14get_best_graspE3MsgN2cv3MatEi
FN:835,_ZN15SuctionCupArrayC2Ev
FN:852,_ZN15SuctionCupArrayC2Eiiff
FN:869,_ZN15SuctionCupArray11get_cup_gdiE3MsgN2cv3MatESt6vectorIiSaIiEEi
FN:902,_ZN15SuctionCupArray14get_best_graspE3MsgN2cv3MatEi
FNDA:6,_ZN15SuctionCupArray14get_best_graspE3MsgN2cv3MatEi
FNDA:6,_ZN9TwoFinger14get_best_graspE3MsgN2cv3MatEi
FNDA:756,_ZN9TwoFinger21best_grasp_from_pointESt6vectorIiSaIiEE3MsgN2cv3MatEii
FNDA:18,_ZN15SuctionCupArrayC2Eiiff
FNDA:42,_ZN9TwoFingerC2Effffff
FNDA:120,_ZN15SuctionCupArrayC2Ev
FNDA:6,_ZN9TwoFingerC2Ev
FNDA:49884,_ZN9TwoFinger14get_corner_gdiESt6vectorIiSaIiEEfN2cv3MatEf
FNDA:24942,_ZN9TwoFinger13find_2_pointsESt6vectorIfSaIfEES2_i
FNDA:36,_ZN9TwoFinger15get_checkpointsE3Msg
FNDA:94470,_ZN15SuctionCupArray11get_cup_gdiE3MsgN2cv3MatESt6vectorIiSaIiEEi
FNDA:24936,_ZN9TwoFinger13get_gdi_valueEN2cv3MatESt6vectorIiSaIiEES4_S4_S4_S4_
FNF:12
FNH:12
DA:124,6
DA:125,6
DA:126,6
DA:127,6
DA:128,6
DA:129,6
DA:134,42
DA:138,42
DA:143,42
DA:145,42
DA:146,42
DA:148,42
DA:149,42
DA:150,42
DA:151,42
DA:152,42
DA:153,42
DA:154,42
DA:155,42
DA:161,36
DA:163,72
DA:164,72
DA:165,72
DA:166,72
DA:167,72
DA:177,36
DA:178,36
DA:186,36
DA:187,30
DA:188,30
DA:189,30
DA:190,30
DA:191,30
DA:193,30
DA:194,30
DA:195,30
DA:196,30
DA:197,30
DA:199,6
DA:200,6
DA:204,36
DA:205,30
DA:206,30
DA:207,30
DA:208,30
DA:209,30
DA:212,30
DA:213,30
DA:214,30
DA:215,30
DA:216,30
DA:218,6
DA:219,6
DA:223,36
DA:224,6
DA:226,36
DA:227,6
DA:229,36
DA:230,6
DA:232,36
DA:233,6
DA:237,36
DA:239,36
DA:241,36
DA:244,36
DA:246,36
DA:247,24
DA:249,24
DA:250,6
DA:252,18
DA:254,24
DA:257,5574
DA:258,5550
DA:259,4122
DA:261,1428
DA:263,5550
DA:264,5544
DA:265,5544
DA:267,6
DA:268,6
DA:271,5550
DA:272,5544
DA:273,5544
DA:275,6
DA:276,6
DA:279,5550
DA:280,5550
DA:282,0
DA:285,12
DA:287,6
DA:288,6
DA:289,0
DA:291,6
DA:293,6
DA:296,1512
DA:297,1506
DA:298,1506
DA:299,1506
DA:301,0
DA:302,0
DA:304,1506
DA:305,1506
DA:306,1506
DA:308,0
DA:309,0
DA:311,1506
DA:312,1506
DA:314,0
DA:316,1506
DA:317,1506
DA:319,0
DA:323,6
DA:329,12
DA:330,12
DA:333,12
DA:339,6
DA:340,6
DA:348,1518
DA:349,382536
DA:351,381024
DA:353,90
DA:354,90
DA:356,0
DA:359,90
DA:360,90
DA:362,0
DA:364,380934
DA:366,90
DA:367,90
DA:369,0
DA:372,90
DA:373,90
DA:375,0
DA:383,36
DA:384,36
DA:385,36
DA:386,36
DA:387,36
DA:388,36
DA:389,36
DA:391,36
DA:396,49884
DA:402,49884
DA:404,99768
DA:405,2044090
DA:406,81801700
DA:407,79807500
DA:409,79807500
DA:410,79807500
DA:415,62098700
DA:416,62098700
DA:417,62098700
DA:420,42
DA:425,49842
DA:431,24936
DA:439,24936
DA:440,24936
DA:443,24936
DA:445,24936
DA:446,49872
DA:447,24936
DA:448,24936
DA:449,1022350
DA:450,1022350
DA:452,40893400
DA:453,40893400
DA:455,79792000
DA:456,39896000
DA:457,39896000
DA:458,35863500
DA:459,35863500
DA:465,24936
DA:466,6
DA:469,24930
DA:472,24930
DA:479,49860
DA:480,49860
DA:482,49860
DA:483,24930
DA:484,24930
DA:485,74790
DA:487,24930
DA:488,24930
DA:489,24930
DA:490,49860
DA:493,18
DA:494,18
DA:495,18
DA:496,18
DA:499,24912
DA:500,24912
DA:501,24912
DA:502,24912
DA:508,24930
DA:509,24930
DA:511,24930
DA:512,24912
DA:515,24930
DA:521,24942
DA:535,24942
DA:536,49884
DA:537,49884
DA:551,24942
DA:557,24930
DA:558,49860
DA:559,24930
DA:560,24930
DA:561,24930
DA:563,24930
DA:564,49860
DA:565,24930
DA:566,24930
DA:567,24930
DA:569,24930
DA:570,49860
DA:571,24930
DA:572,24930
DA:573,24930
DA:575,24930
DA:576,49860
DA:577,24930
DA:578,24930
DA:579,24930
DA:581,12
DA:588,6
DA:589,6
DA:590,6
DA:591,6
DA:592,6
DA:594,6
DA:595,6
DA:596,6
DA:597,6
DA:598,6
DA:600,6
DA:601,6
DA:602,6
DA:603,6
DA:604,6
DA:605,6
DA:606,6
DA:607,6
DA:608,6
DA:609,6
DA:612,18
DA:613,6
DA:614,6
DA:615,18
DA:616,6
DA:617,6
DA:620,24942
DA:629,49884
DA:630,24942
DA:631,24942
DA:632,74826
DA:633,24942
DA:634,24942
DA:635,24942
DA:636,49884
DA:638,12480
DA:640,12462
DA:642,49884
DA:643,24942
DA:644,24942
DA:645,74826
DA:646,24942
DA:647,24942
DA:648,24942
DA:649,49884
DA:651,12462
DA:653,12480
DA:657,0
DA:661,24942
DA:662,12
DA:663,12
DA:665,24930
DA:671,756
DA:678,756
DA:679,1512
DA:680,1512
DA:681,1512
DA:682,1512
DA:683,756
DA:686,381780
DA:687,381024
DA:688,762048
DA:693,381024
DA:694,381024
DA:695,381024
DA:698,381024
DA:699,24912
DA:700,24912
DA:701,24912
DA:702,24912
DA:704,24912
DA:705,49824
DA:707,24912
DA:708,49824
DA:714,74736
DA:716,24912
DA:718,24912
DA:719,24912
DA:722,24912
DA:731,24912
DA:732,24912
DA:733,24912
DA:734,24912
DA:737,24912
DA:742,24906
DA:743,546
DA:744,546
DA:745,546
DA:746,546
DA:747,546
DA:748,546
DA:749,546
DA:750,546
DA:755,6
DA:756,6
DA:757,6
DA:758,6
DA:759,6
DA:760,6
DA:761,6
DA:762,6
DA:763,6
DA:769,1512
DA:775,6
DA:777,6
DA:778,6
DA:779,6
DA:780,762
DA:781,756
DA:782,1512
DA:783,756
DA:784,756
DA:785,756
DA:786,756
DA:789,6
DA:791,6
DA:792,0
DA:794,6
DA:835,120
DA:836,120
DA:837,120
DA:838,120
DA:839,120
DA:840,120
DA:841,120
DA:843,120
DA:844,120
DA:845,120
DA:846,120
DA:847,120
DA:852,18
DA:853,18
DA:854,18
DA:855,18
DA:856,18
DA:857,18
DA:858,18
DA:860,18
DA:861,18
DA:862,18
DA:863,18
DA:864,18
DA:869,94470
DA:872,94470
DA:873,94470
DA:875,188940
DA:876,4439990
DA:877,204236000
DA:878,199890000
DA:879,199890000
DA:880,195802000
DA:888,94470
DA:889,94152
DA:890,94152
DA:891,94152
DA:892,94152
DA:894,318
DA:902,6
DA:904,6
DA:909,6
DA:910,960
DA:915,95400
DA:916,188892
DA:917,94446
DA:918,94446
DA:919,756
DA:920,756
DA:921,756
DA:922,756
DA:926,6
DA:927,0
DA:929,6
DA:930,6
LF:397
LH:382
end_of_record
TN:
SF:/home/rosi/workcell_ws/src/easy_manipulation_deployment/grasp_planner/include/msg.hpp
FN:65,_ZN3MsgC2ESt10shared_ptrIN8epd_msgs3msg22EPDObjectLocalization_ISaIvEEEESt6vectorIfSaIfEE
FNDA:72,_ZN3MsgC2ESt10shared_ptrIN8epd_msgs3msg22EPDObjectLocalization_ISaIvEEEESt6vectorIfSaIfEE
FNF:1
FNH:1
DA:65,72
DA:67,72
DA:68,72
DA:69,72
DA:70,72
DA:71,138
DA:72,66
DA:73,66
DA:75,66
DA:76,66
DA:78,66
DA:79,66
DA:81,66
DA:82,66
DA:84,66
DA:85,66
DA:87,66
DA:88,66
DA:89,66
DA:91,72
LF:20
LH:20
end_of_record
TN:
SF:/home/rosi/workcell_ws/src/easy_manipulation_deployment/grasp_planner/include/perception_functions.hpp
FN:28,_Z13pixel_to_realN2cv6Point_IfEEN11sensor_msgs3msg11CameraInfo_ISaIvEEERKNS_3MatE
FN:49,_Z15length_to_pixelffN11sensor_msgs3msg11CameraInfo_ISaIvEEE
FNDA:6,_Z13pixel_to_realN2cv6Point_IfEEN11sensor_msgs3msg11CameraInfo_ISaIvEEERKNS_3MatE
FNDA:12,_Z15length_to_pixelffN11sensor_msgs3msg11CameraInfo_ISaIvEEE
FNF:2
FNH:2
DA:28,6
DA:33,6
DA:34,6
DA:35,6
DA:36,6
DA:37,6
DA:40,6
DA:41,6
DA:42,6
DA:43,6
DA:49,12
DA:54,12
DA:55,12
LF:13
LH:13
end_of_record
TN:
SF:/home/rosi/workcell_ws/src/easy_manipulation_deployment/grasp_planner/include/planning_functions.hpp
FN:38,_Z6lengthiiii
FN:46,_Z9in_circlefSt6vectorIiSaIiEES1_
FN:58,_Z18quadratic_equationfff
FN:76,_Z21circle_line_intersectfffSt6vectorIfSaIfEE
FN:112,_Z18get_border_cornersSt6vectorIiSaIiEEf
FN:141,_Z20keep_angle_in_boundsf
FNDA:169338,_Z18get_border_cornersSt6vectorIiSaIiEEf
FNDA:66,_Z21circle_line_intersectfffSt6vectorIfSaIfEE
FNDA:84,_Z18quadratic_equationfff
FNDA:530700,_Z6lengthiiii
FNDA:79807500,_Z9in_circlefSt6vectorIiSaIiEES1_
FNDA:126,_Z20keep_angle_in_boundsf
FNF:6
FNH:6
DA:38,530700
DA:40,530700
DA:46,79807500
DA:48,79807500
DA:49,62098700
DA:51,17708800
DA:58,84
DA:60,84
DA:61,84
DA:62,84
DA:63,30
DA:64,54
DA:65,12
DA:67,42
DA:68,42
DA:70,54
DA:76,66
DA:82,66
DA:84,66
DA:86,48
DA:87,48
DA:88,48
DA:89,48
DA:91,48
DA:94,48
DA:95,90
DA:96,60
DA:97,120
DA:98,60
DA:101,18
DA:105,48
DA:112,169338
DA:114,169338
DA:115,169338
DA:116,338616
DA:117,169308
DA:118,169308
DA:119,24
DA:121,169284
DA:123,169308
DA:124,18
DA:126,169290
DA:128,169308
DA:129,169308
DA:130,507924
DA:132,30
DA:134,169308
DA:141,126
DA:143,126
DA:144,48
DA:145,60
DA:146,36
DA:149,48
DA:150,60
DA:151,36
DA:155,126
LF:56
LH:56
end_of_record
TN:
SF:/home/rosi/workcell_ws/src/easy_manipulation_deployment/grasp_planner/include/planning_node.hpp
FN:45,_ZN13GraspPlanNodeC2Ev
FN:57,_ZNK13GraspPlanNode13planning_initESt10shared_ptrIN8epd_msgs3msg22EPDObjectLocalization_ISaIvEEEE
FNDA:0,_ZNK13GraspPlanNode13planning_initESt10shared_ptrIN8epd_msgs3msg22EPDObjectLocalization_ISaIvEEEE
FNDA:0,_ZN13GraspPlanNodeC2Ev
FNF:2
FNH:0
DA:45,0
DA:46,0
DA:48,0
DA:49,0
DA:50,0
DA:52,0
DA:53,0
DA:54,0
DA:57,0
DA:59,0
DA:60,0
DA:64,0
DA:65,0
DA:67,0
DA:68,0
DA:69,0
DA:70,0
DA:71,0
DA:72,0
DA:74,0
DA:77,0
DA:78,0
DA:79,0
DA:80,0
DA:82,0
DA:84,0
DA:85,0
DA:86,0
DA:87,0
DA:90,0
DA:92,0
DA:93,0
DA:94,0
DA:96,0
DA:100,0
DA:102,0
DA:104,0
DA:105,0
DA:106,0
DA:108,0
DA:109,0
DA:113,0
DA:116,0
DA:118,0
DA:120,0
DA:124,0
DA:125,0
DA:126,0
DA:128,0
DA:129,0
DA:130,0
DA:132,0
DA:134,0
DA:136,0
DA:139,0
DA:143,0
DA:144,0
DA:145,0
DA:146,0
DA:147,0
DA:148,0
DA:149,0
DA:150,0
DA:151,0
DA:152,0
DA:153,0
DA:154,0
DA:156,0
DA:160,0
DA:161,0
DA:162,0
DA:164,0
DA:165,0
DA:168,0
DA:169,0
DA:170,0
DA:171,0
DA:172,0
DA:173,0
DA:174,0
DA:175,0
DA:178,0
DA:179,0
DA:180,0
DA:184,0
DA:186,0
DA:189,0
DA:192,0
DA:193,0
DA:194,0
DA:195,0
DA:196,0
DA:197,0
DA:198,0
DA:199,0
DA:200,0
DA:201,0
DA:202,0
DA:203,0
DA:207,0
DA:208,0
DA:211,0
DA:212,0
DA:215,0
DA:216,0
DA:219,0
DA:220,0
DA:221,0
DA:222,0
DA:225,0
DA:226,0
DA:227,0
DA:228,0
DA:229,0
DA:230,0
DA:234,0
DA:235,0
DA:236,0
DA:239,0
DA:240,0
DA:241,0
DA:242,0
DA:244,0
DA:245,0
DA:247,0
DA:248,0
DA:250,0
DA:251,0
DA:252,0
DA:253,0
DA:255,0
DA:256,0
DA:257,0
DA:259,0
DA:260,0
DA:261,0
DA:262,0
DA:264,0
DA:265,0
DA:266,0
DA:268,0
DA:270,0
DA:271,0
DA:272,0
DA:274,0
DA:275,0
DA:276,0
DA:279,0
DA:280,0
LF:149
LH:0
end_of_record
TN:
SF:/home/rosi/workcell_ws/src/easy_manipulation_deployment/grasp_planner/src/grasp_planning.cpp
FN:20,main
FNDA:0,main
FNF:1
FNH:0
DA:20,0
DA:22,0
DA:23,0
DA:24,0
DA:26,0
DA:27,0
DA:28,0
LF:7
LH:0
end_of_record
TN:
SF:/home/rosi/workcell_ws/src/easy_manipulation_deployment/grasp_planner/src/perception_saver.cpp
FN:20,main
FNDA:0,main
FNF:1
FNH:0
DA:20,0
DA:22,0
DA:23,0
DA:24,0
DA:25,0
DA:26,0
LF:6
LH:0
end_of_record
TN:
SF:/home/rosi/workcell_ws/src/easy_manipulation_deployment/grasp_planner/test/ee_config_test.cpp
FN:20,_ZN38GetPackagePathTest_HasPackagePath_Test8TestBodyEv
FN:20,_ZN38GetPackagePathTest_HasPackagePath_TestC2Ev
FN:27,_ZN43GetPackagePathTest_NonExistPackagePath_Test8TestBodyEv
FN:27,_ZN43GetPackagePathTest_NonExistPackagePath_TestC2Ev
FN:32,_ZN31GoToPathTest_HasFolderPath_TestC2Ev
FN:32,_ZN31GoToPathTest_HasFolderPath_Test8TestBodyEv
FN:38,_ZN30GoToPathTest_NoFolderPath_TestC2Ev
FN:38,_ZN30GoToPathTest_NoFolderPath_Test8TestBodyEv
FN:45,_ZN29LoadYamlTest_HasYamlFile_TestC2Ev
FN:45,_ZN29LoadYamlTest_HasYamlFile_Test8TestBodyEv
FN:50,_ZN28LoadYamlTest_NoYamlFile_Test8TestBodyEv
FN:50,_ZN28LoadYamlTest_NoYamlFile_TestC2Ev
FN:56,_ZN29LoadYamlTest_BadYamlFile_Test8TestBodyEv
FN:56,_ZN29LoadYamlTest_BadYamlFile_TestC2Ev
FN:62,_ZN27LoadYamlTest_BadFolder_TestC2Ev
FN:62,_ZN27LoadYamlTest_BadFolder_Test8TestBodyEv
FN:68,_ZN29GetEETypeTest_GetSuction_Test8TestBodyEv
FN:68,_ZN29GetEETypeTest_GetSuction_TestC2Ev
FN:72,_ZN28GetEETypeTest_GetFinger_Test8TestBodyEv
FN:72,_ZN28GetEETypeTest_GetFinger_TestC2Ev
FN:76,_ZN27GetEETypeTest_NoFields_TestC2Ev
FN:76,_ZN27GetEETypeTest_NoFields_Test8TestBodyEv
FN:81,_ZN30GetEETypeTest_WrongFolder_TestC2Ev
FN:81,_ZN30GetEETypeTest_WrongFolder_Test8TestBodyEv
FN:88,_ZN28GetEETypeTest_WrongYAML_TestC2Ev
FN:88,_ZN28GetEETypeTest_WrongYAML_Test8TestBodyEv
FN:95,_ZN29LoadFingerTest_HasFinger_TestC2Ev
FN:95,_ZN29LoadFingerTest_HasFinger_Test8TestBodyEv
FN:112,_ZN31LoadFingerTest_NoExistYaml_TestC2Ev
FN:112,_ZN31LoadFingerTest_NoExistYaml_Test8TestBodyEv
FN:122,_ZN33LoadFingerTest_NoExistFolder_TestC2Ev
FN:122,_ZN33LoadFingerTest_NoExistFolder_Test8TestBodyEv
FN:132,_ZN28LoadSuctionTest_BadYaml_TestC2Ev
FN:132,_ZN28LoadSuctionTest_BadYaml_Test8TestBodyEv
FN:142,_ZN34LoadFingerTest_WrongFingerNum_Test8TestBodyEv
FN:142,_ZN34LoadFingerTest_WrongFingerNum_TestC2Ev
FN:163,_ZN28LoadFingerTest_NoFields_Test8TestBodyEv
FN:163,_ZN28LoadFingerTest_NoFields_TestC2Ev
FN:210,_ZN32LoadFingerTest_NegativeVals_TestC2Ev
FN:210,_ZN32LoadFingerTest_NegativeVals_Test8TestBodyEv
FN:240,_ZN31LoadSuctionTest_HasSuction_TestC2Ev
FN:240,_ZN31LoadSuctionTest_HasSuction_Test8TestBodyEv
FN:253,_ZN29LoadSuctionTest_NoFields_TestC2Ev
FN:253,_ZN29LoadSuctionTest_NoFields_Test8TestBodyEv
FN:301,_ZN30LoadSuctionTest_WrongCups_TestC2Ev
FN:301,_ZN30LoadSuctionTest_WrongCups_Test8TestBodyEv
FN:340,_ZN28LoadSuctionTest_NegVals_TestC2Ev
FN:340,_ZN28LoadSuctionTest_NegVals_Test8TestBodyEv
FN:377,_ZN32LoadSuctionTest_WrongFolder_TestC2Ev
FN:377,_ZN32LoadSuctionTest_WrongFolder_Test8TestBodyEv
FN:386,_ZN30LoadSuctionTest_WrongFile_Test8TestBodyEv
FN:386,_ZN30LoadSuctionTest_WrongFile_TestC2Ev
FN:396,_ZN28LoadSuctionTest_BadFile_TestC2Ev
FN:396,_ZN28LoadSuctionTest_BadFile_Test8TestBodyEv
FNDA:6,_ZN32LoadFingerTest_NegativeVals_Test8TestBodyEv
FNDA:6,_ZN31LoadSuctionTest_HasSuction_Test8TestBodyEv
FNDA:6,_ZN38GetPackagePathTest_HasPackagePath_TestC2Ev
FNDA:6,_ZN30LoadSuctionTest_WrongCups_Test8TestBodyEv
FNDA:6,_ZN28GetEETypeTest_WrongYAML_Test8TestBodyEv
FNDA:6,_ZN30LoadSuctionTest_WrongFile_TestC2Ev
FNDA:6,_ZN30GoToPathTest_NoFolderPath_TestC2Ev
FNDA:6,_ZN31LoadFingerTest_NoExistYaml_Test8TestBodyEv
FNDA:6,_ZN30GoToPathTest_NoFolderPath_Test8TestBodyEv
FNDA:6,_ZN31GoToPathTest_HasFolderPath_Test8TestBodyEv
FNDA:6,_ZN28LoadSuctionTest_BadFile_Test8TestBodyEv
FNDA:6,_ZN43GetPackagePathTest_NonExistPackagePath_TestC2Ev
FNDA:6,_ZN29LoadFingerTest_HasFinger_Test8TestBodyEv
FNDA:6,_ZN32LoadSuctionTest_WrongFolder_Test8TestBodyEv
FNDA:6,_ZN28GetEETypeTest_WrongYAML_TestC2Ev
FNDA:6,_ZN29LoadFingerTest_HasFinger_TestC2Ev
FNDA:6,_ZN28LoadSuctionTest_NegVals_Test8TestBodyEv
FNDA:6,_ZN30GetEETypeTest_WrongFolder_Test8TestBodyEv
FNDA:6,_ZN29LoadSuctionTest_NoFields_Test8TestBodyEv
FNDA:6,_ZN31LoadSuctionTest_HasSuction_TestC2Ev
FNDA:6,_ZN32LoadFingerTest_NegativeVals_TestC2Ev
FNDA:6,_ZN33LoadFingerTest_NoExistFolder_Test8TestBodyEv
FNDA:6,_ZN34LoadFingerTest_WrongFingerNum_TestC2Ev
FNDA:6,_ZN27LoadYamlTest_BadFolder_Test8TestBodyEv
FNDA:6,_ZN31LoadFingerTest_NoExistYaml_TestC2Ev
FNDA:6,_ZN29LoadYamlTest_BadYamlFile_Test8TestBodyEv
FNDA:6,_ZN28LoadSuctionTest_NegVals_TestC2Ev
FNDA:6,_ZN28LoadFingerTest_NoFields_Test8TestBodyEv
FNDA:6,_ZN31GoToPathTest_HasFolderPath_TestC2Ev
FNDA:6,_ZN28LoadYamlTest_NoYamlFile_TestC2Ev
FNDA:6,_ZN30LoadSuctionTest_WrongCups_TestC2Ev
FNDA:6,_ZN38GetPackagePathTest_HasPackagePath_Test8TestBodyEv
FNDA:6,_ZN28LoadFingerTest_NoFields_TestC2Ev
FNDA:6,_ZN30LoadSuctionTest_WrongFile_Test8TestBodyEv
FNDA:6,_ZN27GetEETypeTest_NoFields_Test8TestBodyEv
FNDA:6,_ZN32LoadSuctionTest_WrongFolder_TestC2Ev
FNDA:6,_ZN43GetPackagePathTest_NonExistPackagePath_Test8TestBodyEv
FNDA:6,_ZN29LoadYamlTest_BadYamlFile_TestC2Ev
FNDA:6,_ZN28LoadSuctionTest_BadFile_TestC2Ev
FNDA:6,_ZN28LoadYamlTest_NoYamlFile_Test8TestBodyEv
FNDA:6,_ZN33LoadFingerTest_NoExistFolder_TestC2Ev
FNDA:6,_ZN29LoadYamlTest_HasYamlFile_Test8TestBodyEv
FNDA:6,_ZN28LoadSuctionTest_BadYaml_Test8TestBodyEv
FNDA:6,_ZN28GetEETypeTest_GetFinger_TestC2Ev
FNDA:6,_ZN29GetEETypeTest_GetSuction_TestC2Ev
FNDA:6,_ZN27LoadYamlTest_BadFolder_TestC2Ev
FNDA:6,_ZN34LoadFingerTest_WrongFingerNum_Test8TestBodyEv
FNDA:6,_ZN29LoadSuctionTest_NoFields_TestC2Ev
FNDA:6,_ZN30GetEETypeTest_WrongFolder_TestC2Ev
FNDA:6,_ZN29GetEETypeTest_GetSuction_Test8TestBodyEv
FNDA:6,_ZN28GetEETypeTest_GetFinger_Test8TestBodyEv
FNDA:6,_ZN29LoadYamlTest_HasYamlFile_TestC2Ev
FNDA:6,_ZN27GetEETypeTest_NoFields_TestC2Ev
FNDA:6,_ZN28LoadSuctionTest_BadYaml_TestC2Ev
FNF:54
FNH:54
DA:20,12
DA:22,6
DA:25,6
DA:27,12
DA:29,24
DA:32,12
DA:34,6
DA:35,6
DA:38,12
DA:40,36
DA:45,12
DA:47,6
DA:50,12
DA:52,48
DA:56,12
DA:58,48
DA:62,12
DA:64,48
DA:68,12
DA:70,6
DA:72,12
DA:74,6
DA:76,12
DA:78,48
DA:81,12
DA:83,48
DA:88,12
DA:90,48
DA:95,12
DA:101,18
DA:102,6
DA:103,6
DA:104,6
DA:105,6
DA:106,6
DA:107,6
DA:108,0
DA:109,0
DA:111,6
DA:112,12
DA:114,48
DA:122,12
DA:124,48
DA:132,12
DA:134,48
DA:142,12
DA:145,42
DA:149,12
DA:150,6
DA:154,42
DA:158,12
DA:159,6
DA:161,6
DA:163,12
DA:166,42
DA:170,12
DA:171,6
DA:175,42
DA:179,12
DA:180,6
DA:184,42
DA:188,12
DA:189,6
DA:193,42
DA:197,12
DA:198,6
DA:201,42
DA:205,12
DA:206,6
DA:208,6
DA:210,12
DA:213,42
DA:217,12
DA:218,6
DA:222,42
DA:226,12
DA:227,6
DA:231,42
DA:235,12
DA:236,6
DA:238,6
DA:240,12
DA:245,18
DA:247,6
DA:248,6
DA:249,6
DA:250,6
DA:251,6
DA:253,12
DA:256,42
DA:260,12
DA:261,6
DA:265,42
DA:269,12
DA:270,6
DA:274,42
DA:278,12
DA:279,6
DA:283,42
DA:287,12
DA:288,6
DA:292,42
DA:296,12
DA:297,6
DA:299,6
DA:301,12
DA:304,42
DA:308,12
DA:309,6
DA:313,42
DA:317,12
DA:318,6
DA:322,42
DA:326,12
DA:327,6
DA:331,42
DA:335,12
DA:336,6
DA:338,6
DA:340,12
DA:343,42
DA:347,12
DA:348,6
DA:352,42
DA:356,12
DA:357,6
DA:361,42
DA:365,12
DA:366,6
DA:369,42
DA:373,12
DA:374,6
DA:376,6
DA:377,12
DA:379,48
DA:386,12
DA:388,48
DA:396,12
DA:398,48
LF:139
LH:137
end_of_record
TN:
SF:/home/rosi/workcell_ws/src/easy_manipulation_deployment/grasp_planner/test/grasp_test.cpp
FN:23,_ZN34FingerGripperTest_EmptyFinger_TestC2Ev
FN:23,_ZN34FingerGripperTest_EmptyFinger_Test8TestBodyEv
FN:34,_ZN46FingerGripperTest_FingerSmallerThanObject_Test8TestBodyEv
FN:34,_ZN46FingerGripperTest_FingerSmallerThanObject_TestC2Ev
FN:64,_ZN44FingerGripperTest_BoundingBoxAtEdgeLeft_TestC2Ev
FN:64,_ZN44FingerGripperTest_BoundingBoxAtEdgeLeft_Test8TestBodyEv
FN:97,_ZN45FingerGripperTest_BoundingBoxAtEdgeRight_TestC2Ev
FN:97,_ZN45FingerGripperTest_BoundingBoxAtEdgeRight_Test8TestBodyEv
FN:129,_ZN39FingerGripperTest_HorizontalObject_TestC2Ev
FN:129,_ZN39FingerGripperTest_HorizontalObject_Test8TestBodyEv
FN:216,_ZN37FingerGripperTest_VerticalObject_Test8TestBodyEv
FN:216,_ZN37FingerGripperTest_VerticalObject_TestC2Ev
FN:277,_ZN35FingerGripperTest_AngledObject_Test8TestBodyEv
FN:277,_ZN35FingerGripperTest_AngledObject_TestC2Ev
FN:332,_ZN36SuctionGripperTest_EmptySuction_Test8TestBodyEv
FN:332,_ZN36SuctionGripperTest_EmptySuction_TestC2Ev
FN:344,_ZN40SuctionGripperTest_HorizontalObject_Test8TestBodyEv
FN:344,_ZN40SuctionGripperTest_HorizontalObject_TestC2Ev
FN:371,_ZN41SuctionGripperTest_GraspQualityCheck_TestC2Ev
FN:371,_ZN41SuctionGripperTest_GraspQualityCheck_Test8TestBodyEv
FNDA:6,_ZN40SuctionGripperTest_HorizontalObject_Test8TestBodyEv
FNDA:6,_ZN46FingerGripperTest_FingerSmallerThanObject_Test8TestBodyEv
FNDA:6,_ZN39FingerGripperTest_HorizontalObject_TestC2Ev
FNDA:6,_ZN44FingerGripperTest_BoundingBoxAtEdgeLeft_TestC2Ev
FNDA:6,_ZN36SuctionGripperTest_EmptySuction_Test8TestBodyEv
FNDA:6,_ZN41SuctionGripperTest_GraspQualityCheck_TestC2Ev
FNDA:6,_ZN34FingerGripperTest_EmptyFinger_TestC2Ev
FNDA:6,_ZN35FingerGripperTest_AngledObject_Test8TestBodyEv
FNDA:6,_ZN36SuctionGripperTest_EmptySuction_TestC2Ev
FNDA:6,_ZN46FingerGripperTest_FingerSmallerThanObject_TestC2Ev
FNDA:6,_ZN37FingerGripperTest_VerticalObject_Test8TestBodyEv
FNDA:6,_ZN35FingerGripperTest_AngledObject_TestC2Ev
FNDA:6,_ZN44FingerGripperTest_BoundingBoxAtEdgeLeft_Test8TestBodyEv
FNDA:6,_ZN34FingerGripperTest_EmptyFinger_Test8TestBodyEv
FNDA:6,_ZN41SuctionGripperTest_GraspQualityCheck_Test8TestBodyEv
FNDA:6,_ZN45FingerGripperTest_BoundingBoxAtEdgeRight_Test8TestBodyEv
FNDA:6,_ZN37FingerGripperTest_VerticalObject_TestC2Ev
FNDA:6,_ZN40SuctionGripperTest_HorizontalObject_TestC2Ev
FNDA:6,_ZN39FingerGripperTest_HorizontalObject_Test8TestBodyEv
FNDA:6,_ZN45FingerGripperTest_BoundingBoxAtEdgeRight_TestC2Ev
FNF:20
FNH:20
DA:23,12
DA:25,12
DA:27,6
DA:28,6
DA:29,6
DA:30,6
DA:31,6
DA:32,6
DA:33,6
DA:34,12
DA:36,6
DA:37,12
DA:38,12
DA:39,12
DA:40,12
DA:42,6
DA:43,0
DA:44,6
DA:45,6
DA:46,6
DA:47,6
DA:48,6
DA:50,6
DA:52,18
DA:53,18
DA:54,6
DA:56,2478
DA:57,2472
DA:58,2472
DA:59,2472
DA:60,2472
DA:61,2472
DA:63,6
DA:64,12
DA:66,6
DA:69,12
DA:71,6
DA:72,6
DA:73,12
DA:74,12
DA:75,12
DA:77,6
DA:78,0
DA:79,6
DA:80,6
DA:81,6
DA:82,6
DA:83,6
DA:84,6
DA:87,18
DA:91,18
DA:92,6
DA:93,6
DA:94,6
DA:95,6
DA:97,12
DA:99,6
DA:101,12
DA:103,6
DA:104,6
DA:105,12
DA:106,12
DA:107,12
DA:109,6
DA:110,0
DA:111,6
DA:112,6
DA:113,6
DA:114,6
DA:115,6
DA:117,6
DA:120,18
DA:124,18
DA:125,6
DA:126,6
DA:127,6
DA:128,6
DA:129,12
DA:131,6
DA:133,12
DA:135,12
DA:136,12
DA:137,12
DA:139,6
DA:140,0
DA:141,6
DA:142,6
DA:143,6
DA:144,6
DA:145,6
DA:146,6
DA:148,18
DA:152,18
DA:153,6
DA:155,6
DA:156,6
DA:157,6
DA:158,6
DA:159,6
DA:161,6
DA:162,6
DA:163,6
DA:164,6
DA:166,6
DA:167,6
DA:168,6
DA:169,6
DA:170,6
DA:174,18
DA:176,6
DA:177,6
DA:178,6
DA:179,6
DA:183,18
DA:184,6
DA:188,18
DA:189,6
DA:191,12
DA:197,6
DA:198,6
DA:200,12
DA:206,6
DA:207,6
DA:209,6
DA:210,6
DA:212,6
DA:213,6
DA:214,6
DA:216,12
DA:218,6
DA:221,12
DA:223,12
DA:224,12
DA:225,12
DA:227,6
DA:228,0
DA:229,6
DA:230,6
DA:231,6
DA:232,6
DA:233,6
DA:235,6
DA:237,18
DA:241,18
DA:242,6
DA:244,6
DA:245,6
DA:246,6
DA:247,6
DA:248,6
DA:250,6
DA:251,6
DA:252,6
DA:253,6
DA:257,18
DA:259,6
DA:260,6
DA:261,6
DA:262,6
DA:264,12
DA:270,6
DA:272,6
DA:273,6
DA:274,6
DA:275,6
DA:277,12
DA:279,6
DA:281,12
DA:283,12
DA:284,12
DA:285,12
DA:287,6
DA:288,0
DA:289,6
DA:290,6
DA:291,6
DA:292,6
DA:293,6
DA:295,6
DA:297,18
DA:301,18
DA:302,6
DA:304,6
DA:305,6
DA:306,6
DA:308,6
DA:309,6
DA:310,6
DA:311,6
DA:313,18
DA:314,6
DA:315,6
DA:316,6
DA:317,6
DA:319,12
DA:325,6
DA:326,6
DA:328,6
DA:329,6
DA:330,6
DA:332,12
DA:334,12
DA:336,6
DA:337,6
DA:338,6
DA:339,6
DA:340,6
DA:341,6
DA:342,6
DA:343,6
DA:344,12
DA:346,6
DA:347,12
DA:349,12
DA:350,12
DA:351,12
DA:353,6
DA:354,0
DA:355,6
DA:356,6
DA:357,6
DA:358,6
DA:359,6
DA:360,6
DA:362,18
DA:366,18
DA:367,6
DA:368,6
DA:369,6
DA:371,12
DA:373,6
DA:375,12
DA:377,12
DA:378,12
DA:379,12
DA:381,6
DA:382,0
DA:383,6
DA:384,6
DA:385,6
DA:386,6
DA:387,6
DA:388,6
DA:390,18
DA:394,18
DA:395,6
DA:396,6
DA:397,6
DA:398,6
DA:399,6
DA:401,6
DA:402,6
DA:403,6
DA:405,6
DA:406,6
DA:407,6
DA:408,6
DA:409,6
LF:258
LH:250
end_of_record
TN:
SF:/home/rosi/workcell_ws/src/easy_manipulation_deployment/grasp_planner/test/init_tests.cpp
FN:23,main
FNDA:6,main
FNF:1
FNH:1
DA:23,6
DA:25,6
DA:26,6
LF:3
LH:3
end_of_record
TN:
SF:/home/rosi/workcell_ws/src/easy_manipulation_deployment/grasp_planner/test/load_perception.hpp
FN:33,_Z14LoadPerceptionv
FN:243,_Z14load_depth_imgv
FNDA:60,_Z14load_depth_imgv
FNDA:60,_Z14LoadPerceptionv
FNF:2
FNH:2
DA:33,60
DA:35,120
DA:37,120
DA:40,60
DA:44,540
DA:45,960
DA:46,480
DA:47,120
DA:48,180
DA:49,120
DA:50,60
DA:52,120
DA:53,60
DA:54,120
DA:55,420
DA:56,360
DA:57,300
DA:59,300
DA:60,120
DA:61,240
DA:62,180
DA:63,120
DA:65,120
DA:66,120
DA:67,300
DA:68,240
DA:69,180
DA:71,180
DA:72,60
DA:74,180
DA:75,60
DA:77,180
DA:78,60
DA:82,120
DA:83,120
DA:84,360
DA:85,300
DA:86,240
DA:88,240
DA:89,60
DA:91,240
DA:92,60
DA:94,240
DA:95,60
DA:97,240
DA:98,60
DA:105,300
DA:106,120
DA:107,360
DA:108,300
DA:109,60
DA:111,300
DA:112,60
DA:114,300
DA:115,60
DA:117,300
DA:118,60
DA:122,300
DA:123,60
DA:125,300
DA:126,60
DA:128,300
DA:129,60
DA:132,60
DA:135,480
DA:136,60
DA:138,480
DA:139,60
DA:142,480
DA:143,60
DA:146,480
DA:147,120
DA:148,120
DA:149,780
DA:150,720
DA:151,660
DA:153,660
DA:154,120
DA:155,120
DA:156,360
DA:157,300
DA:159,60
DA:162,660
DA:163,60
DA:165,600
DA:166,540
DA:167,540
DA:169,60
DA:171,660
DA:172,60
DA:174,600
DA:175,540
DA:176,540
DA:178,60
DA:180,660
DA:181,60
DA:183,780
DA:184,720
DA:185,720
DA:187,60
DA:190,60
DA:193,480
DA:194,120
DA:195,180
DA:196,120
DA:197,60
DA:199,120
DA:200,60
DA:201,360
DA:202,300
DA:203,60
DA:205,300
DA:206,60
DA:208,300
DA:209,60
DA:211,300
DA:212,60
DA:215,60
DA:219,480
DA:220,120
DA:221,120
DA:222,480
DA:223,420
DA:224,360
DA:226,360
DA:227,60
DA:230,360
DA:231,60
DA:234,60
DA:238,60
DA:239,120
DA:243,60
DA:245,60
DA:247,120
DA:248,60
DA:249,60
DA:250,120
DA:252,38460
DA:253,38400
DA:254,76800
DA:255,38400
DA:256,18470400
DA:257,18432000
DA:258,18432000
DA:260,38400
DA:263,120
LF:146
LH:146
end_of_record
TN:
SF:/home/rosi/workcell_ws/src/easy_manipulation_deployment/grasp_planner/test/msg_test.cpp
FN:21,_Z24generate_mock_perceptionv
FN:47,_Z30generate_mock_empty_perceptionv
FN:72,_ZN20MsgTest_VarTest_Test8TestBodyEv
FN:72,_ZN20MsgTest_VarTest_TestC2Ev
FN:110,_ZN25MsgTest_NegAngleTest_Test8TestBodyEv
FN:110,_ZN25MsgTest_NegAngleTest_TestC2Ev
FN:117,_ZN27MsgTest_LargeAngleTest_TestC2Ev
FN:117,_ZN27MsgTest_LargeAngleTest_Test8TestBodyEv
FN:124,_ZN22MsgTest_NoObjTest_TestC2Ev
FN:124,_ZN22MsgTest_NoObjTest_Test8TestBodyEv
FNDA:6,_ZN27MsgTest_LargeAngleTest_Test8TestBodyEv
FNDA:18,_Z24generate_mock_perceptionv
FNDA:6,_ZN27MsgTest_LargeAngleTest_TestC2Ev
FNDA:6,_ZN20MsgTest_VarTest_Test8TestBodyEv
FNDA:6,_ZN22MsgTest_NoObjTest_TestC2Ev
FNDA:6,_ZN20MsgTest_VarTest_TestC2Ev
FNDA:6,_ZN25MsgTest_NegAngleTest_Test8TestBodyEv
FNDA:6,_ZN22MsgTest_NoObjTest_Test8TestBodyEv
FNDA:6,_ZN25MsgTest_NegAngleTest_TestC2Ev
FNDA:6,_Z30generate_mock_empty_perceptionv
FNF:10
FNH:10
DA:21,18
DA:23,36
DA:25,18
DA:26,18
DA:28,36
DA:29,18
DA:30,18
DA:31,18
DA:32,18
DA:33,18
DA:34,18
DA:35,36
DA:36,18
DA:37,18
DA:38,18
DA:41,18
DA:43,36
DA:47,6
DA:49,12
DA:51,6
DA:52,6
DA:54,12
DA:55,6
DA:56,6
DA:57,6
DA:58,6
DA:59,6
DA:60,6
DA:61,12
DA:62,6
DA:63,6
DA:64,6
DA:67,6
DA:69,12
DA:72,12
DA:74,18
DA:76,6
DA:77,6
DA:78,6
DA:79,6
DA:80,6
DA:81,6
DA:82,6
DA:83,6
DA:84,6
DA:85,6
DA:86,6
DA:87,6
DA:88,6
DA:90,6
DA:91,6
DA:92,6
DA:93,6
DA:95,6
DA:96,6
DA:97,6
DA:98,6
DA:99,6
DA:100,6
DA:102,6
DA:103,6
DA:104,6
DA:105,6
DA:106,6
DA:107,6
DA:108,6
DA:110,12
DA:112,18
DA:114,6
DA:115,6
DA:117,12
DA:119,18
DA:121,6
DA:122,6
DA:124,12
DA:126,18
DA:128,6
DA:129,6
DA:130,6
DA:131,6
DA:132,6
DA:133,6
DA:134,6
DA:135,6
DA:136,6
DA:137,6
DA:138,6
DA:139,6
DA:140,6
DA:142,6
DA:143,6
DA:144,6
DA:145,6
LF:93
LH:93
end_of_record
TN:
SF:/home/rosi/workcell_ws/src/easy_manipulation_deployment/grasp_planner/test/perception_function_test.cpp
FN:20,_ZN39PerceptionFunctionTest_PixelToReal_Test8TestBodyEv
FN:20,_ZN39PerceptionFunctionTest_PixelToReal_TestC2Ev
FN:33,_ZN41PerceptionFunctionTest_LengthToPixel_Test8TestBodyEv
FN:33,_ZN41PerceptionFunctionTest_LengthToPixel_TestC2Ev
FNDA:6,_ZN41PerceptionFunctionTest_LengthToPixel_Test8TestBodyEv
FNDA:6,_ZN41PerceptionFunctionTest_LengthToPixel_TestC2Ev
FNDA:6,_ZN39PerceptionFunctionTest_PixelToReal_TestC2Ev
FNDA:6,_ZN39PerceptionFunctionTest_PixelToReal_Test8TestBodyEv
FNF:4
FNH:4
DA:20,12
DA:22,6
DA:24,12
DA:26,12
DA:27,6
DA:28,6
DA:29,6
DA:30,6
DA:31,6
DA:33,12
DA:35,6
DA:37,12
DA:39,12
DA:40,6
DA:41,6
DA:42,6
LF:16
LH:16
end_of_record
TN:
SF:/home/rosi/workcell_ws/src/easy_manipulation_deployment/grasp_planner/test/perception_save.hpp
FN:34,_ZN15PerceptionSaverC2Ev
FN:43,_ZNK15PerceptionSaver13planning_initESt10shared_ptrIN8epd_msgs3msg22EPDObjectLocalization_ISaIvEEEE
FNDA:0,_ZNK15PerceptionSaver13planning_initESt10shared_ptrIN8epd_msgs3msg22EPDObjectLocalization_ISaIvEEEE
FNDA:0,_ZN15PerceptionSaverC2Ev
FNF:2
FNH:0
DA:34,0
DA:35,0
DA:37,0
DA:38,0
DA:39,0
DA:40,0
DA:43,0
DA:45,0
DA:47,0
DA:48,0
DA:49,0
DA:50,0
DA:51,0
DA:52,0
DA:53,0
DA:54,0
DA:55,0
DA:56,0
DA:57,0
DA:58,0
DA:59,0
DA:60,0
DA:61,0
DA:62,0
DA:63,0
DA:64,0
DA:66,0
DA:67,0
DA:68,0
DA:69,0
DA:70,0
DA:71,0
DA:72,0
DA:73,0
DA:74,0
DA:75,0
DA:76,0
DA:77,0
DA:78,0
DA:79,0
DA:80,0
DA:81,0
DA:82,0
DA:83,0
DA:84,0
DA:85,0
DA:86,0
DA:87,0
DA:88,0
DA:89,0
DA:90,0
DA:91,0
DA:92,0
DA:93,0
DA:94,0
DA:95,0
DA:96,0
DA:97,0
DA:98,0
DA:99,0
DA:100,0
DA:101,0
DA:102,0
DA:103,0
DA:104,0
DA:105,0
DA:106,0
DA:107,0
DA:108,0
DA:109,0
DA:112,0
DA:113,0
DA:114,0
DA:115,0
DA:116,0
DA:117,0
DA:118,0
DA:120,0
DA:122,0
DA:123,0
DA:125,0
DA:126,0
DA:128,0
DA:129,0
DA:131,0
DA:132,0
DA:133,0
DA:135,0
DA:136,0
DA:137,0
DA:138,0
DA:139,0
DA:140,0
DA:141,0
DA:142,0
DA:143,0
DA:144,0
DA:145,0
DA:146,0
DA:147,0
DA:148,0
DA:150,0
DA:151,0
DA:153,0
DA:154,0
DA:156,0
DA:157,0
DA:159,0
DA:160,0
DA:161,0
DA:162,0
DA:163,0
DA:164,0
DA:166,0
DA:168,0
DA:169,0
DA:170,0
DA:171,0
DA:172,0
DA:173,0
DA:175,0
DA:177,0
DA:178,0
DA:179,0
DA:180,0
DA:181,0
DA:182,0
DA:184,0
DA:186,0
DA:187,0
DA:188,0
DA:189,0
DA:190,0
DA:191,0
DA:193,0
DA:195,0
DA:196,0
DA:198,0
DA:199,0
DA:201,0
DA:202,0
DA:203,0
DA:204,0
DA:205,0
DA:206,0
DA:207,0
DA:208,0
DA:209,0
DA:210,0
DA:211,0
DA:212,0
DA:213,0
DA:214,0
DA:216,0
DA:218,0
DA:219,0
DA:220,0
DA:221,0
DA:222,0
DA:223,0
DA:224,0
DA:225,0
DA:226,0
DA:227,0
DA:228,0
DA:229,0
DA:230,0
DA:231,0
DA:232,0
DA:233,0
DA:234,0
DA:235,0
DA:237,0
DA:239,0
DA:240,0
DA:241,0
DA:243,0
DA:244,0
DA:245,0
DA:246,0
DA:247,0
DA:248,0
DA:249,0
DA:250,0
DA:251,0
DA:252,0
DA:253,0
DA:254,0
DA:255,0
DA:256,0
DA:258,0
DA:259,0
DA:261,0
DA:262,0
DA:264,0
DA:265,0
DA:267,0
DA:268,0
DA:270,0
DA:271,0
DA:273,0
DA:275,0
DA:277,0
DA:278,0
DA:279,0
DA:280,0
DA:282,0
DA:283,0
DA:284,0
DA:286,0
DA:287,0
DA:288,0
DA:289,0
DA:290,0
DA:292,0
DA:294,0
DA:295,0
LF:217
LH:0
end_of_record
TN:
SF:/home/rosi/workcell_ws/src/easy_manipulation_deployment/grasp_planner/test/planning_function_test.cpp
FN:21,_ZN27LengthTest_PositiveNos_Test8TestBodyEv
FN:21,_ZN27LengthTest_PositiveNos_TestC2Ev
FN:28,_ZN27LengthTest_NegativeNos_Test8TestBodyEv
FN:28,_ZN27LengthTest_NegativeNos_TestC2Ev
FN:37,_ZN30InCircleTest_InsideCircle_Test8TestBodyEv
FN:37,_ZN30InCircleTest_InsideCircle_TestC2Ev
FN:43,_ZN31InCircleTest_OutsideCircle_Test8TestBodyEv
FN:43,_ZN31InCircleTest_OutsideCircle_TestC2Ev
FN:50,_ZN26InCircleTest_OnCircle_Test8TestBodyEv
FN:50,_ZN26InCircleTest_OnCircle_TestC2Ev
FN:55,_ZN47QuadraticEquationTest_PositiveDiscriminant_TestC2Ev
FN:55,_ZN47QuadraticEquationTest_PositiveDiscriminant_Test8TestBodyEv
FN:69,_ZN47QuadraticEquationTest_NegativeDiscriminant_Test8TestBodyEv
FN:69,_ZN47QuadraticEquationTest_NegativeDiscriminant_TestC2Ev
FN:78,_ZN43QuadraticEquationTest_ZeroDiscriminant_Test8TestBodyEv
FN:78,_ZN43QuadraticEquationTest_ZeroDiscriminant_TestC2Ev
FN:89,_ZN42CircleLineIntersectTest_TwoIntersects_Test8TestBodyEv
FN:89,_ZN42CircleLineIntersectTest_TwoIntersects_TestC2Ev
FN:113,_ZN41CircleLineIntersectTest_OneIntersect_Test8TestBodyEv
FN:113,_ZN41CircleLineIntersectTest_OneIntersect_TestC2Ev
FN:119,_ZN40CircleLineIntersectTest_NoIntersect_TestC2Ev
FN:119,_ZN40CircleLineIntersectTest_NoIntersect_Test8TestBodyEv
FN:128,_ZN42CircleLineIntersectTest_CenterVecSize_Test8TestBodyEv
FN:128,_ZN42CircleLineIntersectTest_CenterVecSize_TestC2Ev
FN:136,_ZN38CircleLineIntersectTest_NegRadius_Test8TestBodyEv
FN:136,_ZN38CircleLineIntersectTest_NegRadius_TestC2Ev
FN:143,_ZN31BorderCornerTest_PosCenter_TestC2Ev
FN:143,_ZN31BorderCornerTest_PosCenter_Test8TestBodyEv
FN:156,_ZN31BorderCornerTest_NegCenter_Test8TestBodyEv
FN:156,_ZN31BorderCornerTest_NegCenter_TestC2Ev
FN:163,_ZN39BorderCornerTest_CloseCornerValues_TestC2Ev
FN:163,_ZN39BorderCornerTest_CloseCornerValues_Test8TestBodyEv
FN:187,_ZN37BorderCornerTest_WrongCenterSize_TestC2Ev
FN:187,_ZN37BorderCornerTest_WrongCenterSize_Test8TestBodyEv
FN:198,_ZN31BorderCornerTest_NegRadius_TestC2Ev
FN:198,_ZN31BorderCornerTest_NegRadius_Test8TestBodyEv
FN:205,_ZN33AngleBoundsTest_WithinBounds_Test8TestBodyEv
FN:205,_ZN33AngleBoundsTest_WithinBounds_TestC2Ev
FN:213,_ZN33AngleBoundsTest_OutBoundsNeg_Test8TestBodyEv
FN:213,_ZN33AngleBoundsTest_OutBoundsNeg_TestC2Ev
FN:220,_ZN33AngleBoundsTest_OutBoundsPos_TestC2Ev
FN:220,_ZN33AngleBoundsTest_OutBoundsPos_Test8TestBodyEv
FNDA:6,_ZN47QuadraticEquationTest_NegativeDiscriminant_Test8TestBodyEv
FNDA:6,_ZN40CircleLineIntersectTest_NoIntersect_Test8TestBodyEv
FNDA:6,_ZN42CircleLineIntersectTest_TwoIntersects_Test8TestBodyEv
FNDA:6,_ZN47QuadraticEquationTest_PositiveDiscriminant_Test8TestBodyEv
FNDA:6,_ZN47QuadraticEquationTest_PositiveDiscriminant_TestC2Ev
FNDA:6,_ZN39BorderCornerTest_CloseCornerValues_TestC2Ev
FNDA:6,_ZN37BorderCornerTest_WrongCenterSize_TestC2Ev
FNDA:6,_ZN47QuadraticEquationTest_NegativeDiscriminant_TestC2Ev
FNDA:6,_ZN26InCircleTest_OnCircle_TestC2Ev
FNDA:6,_ZN31InCircleTest_OutsideCircle_Test8TestBodyEv
FNDA:6,_ZN38CircleLineIntersectTest_NegRadius_Test8TestBodyEv
FNDA:6,_ZN38CircleLineIntersectTest_NegRadius_TestC2Ev
FNDA:6,_ZN33AngleBoundsTest_WithinBounds_Test8TestBodyEv
FNDA:6,_ZN43QuadraticEquationTest_ZeroDiscriminant_Test8TestBodyEv
FNDA:6,_ZN40CircleLineIntersectTest_NoIntersect_TestC2Ev
FNDA:6,_ZN26InCircleTest_OnCircle_Test8TestBodyEv
FNDA:6,_ZN30InCircleTest_InsideCircle_Test8TestBodyEv
FNDA:6,_ZN30InCircleTest_InsideCircle_TestC2Ev
FNDA:6,_ZN33AngleBoundsTest_WithinBounds_TestC2Ev
FNDA:6,_ZN33AngleBoundsTest_OutBoundsPos_TestC2Ev
FNDA:6,_ZN31BorderCornerTest_PosCenter_TestC2Ev
FNDA:6,_ZN27LengthTest_NegativeNos_Test8TestBodyEv
FNDA:6,_ZN31BorderCornerTest_NegCenter_TestC2Ev
FNDA:6,_ZN41CircleLineIntersectTest_OneIntersect_TestC2Ev
FNDA:6,_ZN37BorderCornerTest_WrongCenterSize_Test8TestBodyEv
FNDA:6,_ZN31BorderCornerTest_NegCenter_Test8TestBodyEv
FNDA:6,_ZN27LengthTest_PositiveNos_TestC2Ev
FNDA:6,_ZN27LengthTest_NegativeNos_TestC2Ev
FNDA:6,_ZN42CircleLineIntersectTest_CenterVecSize_TestC2Ev
FNDA:6,_ZN33AngleBoundsTest_OutBoundsPos_Test8TestBodyEv
FNDA:6,_ZN41CircleLineIntersectTest_OneIntersect_Test8TestBodyEv
FNDA:6,_ZN33AngleBoundsTest_OutBoundsNeg_Test8TestBodyEv
FNDA:6,_ZN27LengthTest_PositiveNos_Test8TestBodyEv
FNDA:6,_ZN43QuadraticEquationTest_ZeroDiscriminant_TestC2Ev
FNDA:6,_ZN42CircleLineIntersectTest_CenterVecSize_Test8TestBodyEv
FNDA:6,_ZN39BorderCornerTest_CloseCornerValues_Test8TestBodyEv
FNDA:6,_ZN33AngleBoundsTest_OutBoundsNeg_TestC2Ev
FNDA:6,_ZN31InCircleTest_OutsideCircle_TestC2Ev
FNDA:6,_ZN31BorderCornerTest_NegRadius_TestC2Ev
FNDA:6,_ZN42CircleLineIntersectTest_TwoIntersects_TestC2Ev
FNDA:6,_ZN31BorderCornerTest_NegRadius_Test8TestBodyEv
FNDA:6,_ZN31BorderCornerTest_PosCenter_Test8TestBodyEv
FNF:42
FNH:42
DA:21,12
DA:23,6
DA:24,6
DA:25,6
DA:26,6
DA:28,12
DA:30,6
DA:31,6
DA:32,6
DA:33,6
DA:34,6
DA:35,6
DA:37,12
DA:39,6
DA:40,6
DA:43,12
DA:45,6
DA:46,6
DA:50,12
DA:52,6
DA:55,12
DA:57,12
DA:59,6
DA:61,6
DA:62,6
DA:64,6
DA:65,6
DA:66,6
DA:67,6
DA:68,6
DA:69,12
DA:71,12
DA:73,6
DA:75,6
DA:76,6
DA:77,6
DA:78,12
DA:80,12
DA:82,6
DA:83,6
DA:85,6
DA:86,6
DA:87,6
DA:88,6
DA:89,12
DA:91,12
DA:93,6
DA:94,6
DA:98,6
DA:99,6
DA:100,6
DA:101,6
DA:103,6
DA:104,6
DA:105,6
DA:108,6
DA:109,6
DA:110,6
DA:111,6
DA:113,12
DA:115,18
DA:117,6
DA:118,6
DA:119,12
DA:121,18
DA:123,6
DA:125,6
DA:126,6
DA:127,6
DA:128,12
DA:130,18
DA:132,6
DA:133,6
DA:134,6
DA:135,6
DA:136,12
DA:138,18
DA:140,6
DA:141,6
DA:143,12
DA:145,12
DA:147,6
DA:148,6
DA:151,6
DA:152,6
DA:153,6
DA:154,6
DA:156,12
DA:158,18
DA:160,6
DA:161,6
DA:163,12
DA:165,12
DA:167,6
DA:168,6
DA:171,6
DA:172,6
DA:173,6
DA:174,6
DA:176,6
DA:177,6
DA:178,6
DA:181,6
DA:182,6
DA:183,6
DA:184,6
DA:187,12
DA:189,12
DA:191,6
DA:192,6
DA:193,6
DA:194,6
DA:195,6
DA:196,6
DA:198,12
DA:200,18
DA:202,6
DA:203,6
DA:205,12
DA:207,6
DA:208,6
DA:209,6
DA:210,6
DA:211,6
DA:213,12
DA:215,6
DA:216,6
DA:217,6
DA:218,6
DA:220,12
DA:222,6
DA:223,6
DA:224,6
DA:225,6
LF:134
LH:134
end_of_record
